target datalayout = "e-m:e-p270:32:32-p271:32:32-p272:64:64-i64:64-i128:128-f80:128-n8:16:32:64-S128"
target triple = "x86_64-pc-linux-gnu"

%struct.JsonLexContext = type { ptr, i64, i32, ptr, ptr, ptr, i8, i32, i32, i32, i32, ptr, ptr, ptr, i8, ptr, ptr }
%struct.JsonIncrementalState = type { i8, i8, i8, %struct.PQExpBufferData }
%struct.PQExpBufferData = type { ptr, i64, i64 }
%struct.JsonParserStack = type { i32, ptr, i64, ptr, ptr, i32, ptr }

@failed_oom = internal global %struct.JsonLexContext zeroinitializer, align 8
@failed_inc_oom = internal global %struct.JsonIncrementalState zeroinitializer, align 8

; Function Attrs: nounwind uwtable
define internal zeroext i1 @allocate_incremental_state(ptr noundef %0) #1 {
  %2 = alloca i1, align 1
  %3 = alloca ptr, align 8
  %4 = alloca ptr, align 8
  %5 = alloca ptr, align 8
  %6 = alloca ptr, align 8
  %7 = alloca ptr, align 8
  %8 = alloca i32, align 4
  store ptr %0, ptr %3, align 8
  call void @llvm.lifetime.start.p0(i64 8, ptr %4) #15
  call void @llvm.lifetime.start.p0(i64 8, ptr %5) #15
  call void @llvm.lifetime.start.p0(i64 8, ptr %6) #15
  call void @llvm.lifetime.start.p0(i64 8, ptr %7) #15
  %9 = call noalias ptr @calloc(i64 noundef 1, i64 noundef 32) #16
  %10 = load ptr, ptr %3, align 8
  %11 = getelementptr inbounds nuw %struct.JsonLexContext, ptr %10, i32 0, i32 13
  store ptr %9, ptr %11, align 8
  %12 = call noalias ptr @calloc(i64 noundef 1, i64 noundef 56) #16
  store ptr %12, ptr %4, align 8
  %13 = call noalias ptr @malloc(i64 noundef 640) #17
  store ptr %13, ptr %5, align 8
  %14 = call noalias ptr @malloc(i64 noundef 512) #17
  store ptr %14, ptr %6, align 8
  %15 = call noalias ptr @malloc(i64 noundef 64) #17
  store ptr %15, ptr %7, align 8
  %16 = load ptr, ptr %3, align 8
  %17 = getelementptr inbounds nuw %struct.JsonLexContext, ptr %16, i32 0, i32 13
  %18 = load ptr, ptr %17, align 8
  %19 = icmp ne ptr %18, null
  br i1 %19, label %20, label %32

20:                                               ; preds = %1
  %21 = load ptr, ptr %4, align 8
  %22 = icmp ne ptr %21, null
  br i1 %22, label %23, label %32

23:                                               ; preds = %20
  %24 = load ptr, ptr %5, align 8
  %25 = icmp ne ptr %24, null
  br i1 %25, label %26, label %32

26:                                               ; preds = %23
  %27 = load ptr, ptr %6, align 8
  %28 = icmp ne ptr %27, null
  br i1 %28, label %29, label %32

29:                                               ; preds = %26
  %30 = load ptr, ptr %7, align 8
  %31 = icmp ne ptr %30, null
  br i1 %31, label %42, label %32

32:                                               ; preds = %29, %26, %23, %20, %1
  %33 = load ptr, ptr %3, align 8
  %34 = getelementptr inbounds nuw %struct.JsonLexContext, ptr %33, i32 0, i32 13
  %35 = load ptr, ptr %34, align 8
  call void @free(ptr noundef %35) #15
  %36 = load ptr, ptr %4, align 8
  call void @free(ptr noundef %36) #15
  %37 = load ptr, ptr %5, align 8
  call void @free(ptr noundef %37) #15
  %38 = load ptr, ptr %6, align 8
  call void @free(ptr noundef %38) #15
  %39 = load ptr, ptr %7, align 8
  call void @free(ptr noundef %39) #15
  %40 = load ptr, ptr %3, align 8
  %41 = getelementptr inbounds nuw %struct.JsonLexContext, ptr %40, i32 0, i32 13
  store ptr @failed_inc_oom, ptr %41, align 8
  store i1 false, ptr %2, align 1
  store i32 1, ptr %8, align 4
  br label %77

42:                                               ; preds = %29
  %43 = load ptr, ptr %3, align 8
  %44 = getelementptr inbounds nuw %struct.JsonLexContext, ptr %43, i32 0, i32 13
  %45 = load ptr, ptr %44, align 8
  %46 = getelementptr inbounds nuw %struct.JsonIncrementalState, ptr %45, i32 0, i32 3
  call void @initPQExpBuffer(ptr noundef %46)
  %47 = load ptr, ptr %4, align 8
  %48 = load ptr, ptr %3, align 8
  %49 = getelementptr inbounds nuw %struct.JsonLexContext, ptr %48, i32 0, i32 12
  store ptr %47, ptr %49, align 8
  %50 = load ptr, ptr %3, align 8
  %51 = getelementptr inbounds nuw %struct.JsonLexContext, ptr %50, i32 0, i32 12
  %52 = load ptr, ptr %51, align 8
  %53 = getelementptr inbounds nuw %struct.JsonParserStack, ptr %52, i32 0, i32 0
  store i32 64, ptr %53, align 8
  %54 = load ptr, ptr %5, align 8
  %55 = load ptr, ptr %3, align 8
  %56 = getelementptr inbounds nuw %struct.JsonLexContext, ptr %55, i32 0, i32 12
  %57 = load ptr, ptr %56, align 8
  %58 = getelementptr inbounds nuw %struct.JsonParserStack, ptr %57, i32 0, i32 1
  store ptr %54, ptr %58, align 8
  %59 = load ptr, ptr %6, align 8
  %60 = load ptr, ptr %3, align 8
  %61 = getelementptr inbounds nuw %struct.JsonLexContext, ptr %60, i32 0, i32 12
  %62 = load ptr, ptr %61, align 8
  %63 = getelementptr inbounds nuw %struct.JsonParserStack, ptr %62, i32 0, i32 3
  store ptr %59, ptr %63, align 8
  %64 = load ptr, ptr %7, align 8
  %65 = load ptr, ptr %3, align 8
  %66 = getelementptr inbounds nuw %struct.JsonLexContext, ptr %65, i32 0, i32 12
  %67 = load ptr, ptr %66, align 8
  %68 = getelementptr inbounds nuw %struct.JsonParserStack, ptr %67, i32 0, i32 4
  store ptr %64, ptr %68, align 8
  %69 = load ptr, ptr %3, align 8
  %70 = getelementptr inbounds nuw %struct.JsonLexContext, ptr %69, i32 0, i32 12
  %71 = load ptr, ptr %70, align 8
  %72 = getelementptr inbounds nuw %struct.JsonParserStack, ptr %71, i32 0, i32 3
  %73 = load ptr, ptr %72, align 8
  %74 = getelementptr inbounds ptr, ptr %73, i64 0
  store ptr null, ptr %74, align 8
  %75 = load ptr, ptr %3, align 8
  %76 = getelementptr inbounds nuw %struct.JsonLexContext, ptr %75, i32 0, i32 6
  store i8 1, ptr %76, align 8
  store i1 true, ptr %2, align 1
  store i32 1, ptr %8, align 4
  br label %77

77:                                               ; preds = %42, %32
  call void @llvm.lifetime.end.p0(i64 8, ptr %7) #15
  call void @llvm.lifetime.end.p0(i64 8, ptr %6) #15
  call void @llvm.lifetime.end.p0(i64 8, ptr %5) #15
  call void @llvm.lifetime.end.p0(i64 8, ptr %4) #15
  %78 = load i1, ptr %2, align 1
  ret i1 %78
}

; Function Attrs: nounwind uwtable
define ptr @makeJsonLexContextIncremental(ptr noundef %0, i32 noundef %1, i1 noundef zeroext %2) #1 {
  %4 = alloca ptr, align 8
  %5 = alloca ptr, align 8
  %6 = alloca i32, align 4
  %7 = alloca i8, align 1
  store ptr %0, ptr %5, align 8
  store i32 %1, ptr %6, align 4
  %8 = zext i1 %2 to i8
  store i8 %8, ptr %7, align 1
  %9 = load ptr, ptr %5, align 8
  %10 = icmp eq ptr %9, null
  br i1 %10, label %11, label %21

11:                                               ; preds = %3
  %12 = call noalias ptr @calloc(i64 noundef 1, i64 noundef 120) #16
  store ptr %12, ptr %5, align 8
  %13 = load ptr, ptr %5, align 8
  %14 = icmp ne ptr %13, null
  br i1 %14, label %16, label %15

15:                                               ; preds = %11
  store ptr @failed_oom, ptr %4, align 8
  br label %59

16:                                               ; preds = %11
  %17 = load ptr, ptr %5, align 8
  %18 = getelementptr inbounds nuw %struct.JsonLexContext, ptr %17, i32 0, i32 9
  %19 = load i32, ptr %18, align 4
  %20 = or i32 %19, 1
  store i32 %20, ptr %18, align 4
  br label %23

21:                                               ; preds = %3
  %22 = load ptr, ptr %5, align 8
  call void @llvm.memset.p0.i64(ptr align 8 %22, i8 0, i64 120, i1 false)
  br label %23

23:                                               ; preds = %21, %16
  %24 = load ptr, ptr %5, align 8
  %25 = getelementptr inbounds nuw %struct.JsonLexContext, ptr %24, i32 0, i32 10
  store i32 1, ptr %25, align 8
  %26 = load i32, ptr %6, align 4
  %27 = load ptr, ptr %5, align 8
  %28 = getelementptr inbounds nuw %struct.JsonLexContext, ptr %27, i32 0, i32 2
  store i32 %26, ptr %28, align 8
  %29 = load ptr, ptr %5, align 8
  %30 = call zeroext i1 @allocate_incremental_state(ptr noundef %29)
  br i1 %30, label %41, label %31

31:                                               ; preds = %23
  %32 = load ptr, ptr %5, align 8
  %33 = getelementptr inbounds nuw %struct.JsonLexContext, ptr %32, i32 0, i32 9
  %34 = load i32, ptr %33, align 4
  %35 = and i32 %34, 1
  %36 = icmp ne i32 %35, 0
  br i1 %36, label %37, label %39

37:                                               ; preds = %31
  %38 = load ptr, ptr %5, align 8
  call void @free(ptr noundef %38) #15
  store ptr @failed_oom, ptr %4, align 8
  br label %59

39:                                               ; preds = %31
  %40 = load ptr, ptr %5, align 8
  store ptr %40, ptr %4, align 8
  br label %59

41:                                               ; preds = %23
  %42 = load i8, ptr %7, align 1, !range !3, !noundef !4
  %43 = trunc i8 %42 to i1
  %44 = load ptr, ptr %5, align 8
  %45 = getelementptr inbounds nuw %struct.JsonLexContext, ptr %44, i32 0, i32 14
  %46 = zext i1 %43 to i8
  store i8 %46, ptr %45, align 8
  %47 = load i8, ptr %7, align 1, !range !3, !noundef !4
  %48 = trunc i8 %47 to i1
  br i1 %48, label %49, label %57

49:                                               ; preds = %41
  %50 = call ptr @createPQExpBuffer()
  %51 = load ptr, ptr %5, align 8
  %52 = getelementptr inbounds nuw %struct.JsonLexContext, ptr %51, i32 0, i32 15
  store ptr %50, ptr %52, align 8
  %53 = load ptr, ptr %5, align 8
  %54 = getelementptr inbounds nuw %struct.JsonLexContext, ptr %53, i32 0, i32 9
  %55 = load i32, ptr %54, align 4
  %56 = or i32 %55, 2
  store i32 %56, ptr %54, align 4
  br label %57

57:                                               ; preds = %49, %41
  %58 = load ptr, ptr %5, align 8
  store ptr %58, ptr %4, align 8
  br label %59

59:                                               ; preds = %57, %39, %37, %15
  %60 = load ptr, ptr %4, align 8
  ret ptr %60
}