; Function Attrs: nounwind uwtable
define noundef ptr @makeJsonLexContextIncremental(ptr noundef captures(address_is_null, ret: address, provenance) %0, i32 noundef %1, i1 noundef zeroext %2) local_unnamed_addr #1 {
  %4 = zext i1 %2 to i8
  %5 = icmp eq ptr %0, null
  br i1 %5, label %6, label %10

6:                                                ; preds = %3
  %7 = tail call noalias dereferenceable_or_null(120) ptr @calloc(i64 noundef 1, i64 noundef 120) #17
  %.not = icmp eq ptr %7, null
  br i1 %.not, label %44, label %8

8:                                                ; preds = %6
  %9 = getelementptr inbounds nuw i8, ptr %7, i64 60
  store i32 1, ptr %9, align 4
  br label %11

10:                                               ; preds = %3
  tail call void @llvm.memset.p0.i64(ptr noundef nonnull align 8 dereferenceable(120) %0, i8 0, i64 120, i1 false)
  br label %11

11:                                               ; preds = %10, %8
  %.017 = phi ptr [ %7, %8 ], [ %0, %10 ]
  %12 = getelementptr inbounds nuw i8, ptr %.017, i64 64
  store i32 1, ptr %12, align 8
  %13 = getelementptr inbounds nuw i8, ptr %.017, i64 16
  store i32 %1, ptr %13, align 8
  %14 = tail call noalias dereferenceable_or_null(32) ptr @calloc(i64 noundef 1, i64 noundef 32) #17
  %15 = getelementptr inbounds nuw i8, ptr %.017, i64 88
  store ptr %14, ptr %15, align 8
  %16 = tail call noalias dereferenceable_or_null(56) ptr @calloc(i64 noundef 1, i64 noundef 56) #17
  %17 = tail call noalias dereferenceable_or_null(640) ptr @malloc(i64 noundef 640) #18
  %18 = tail call noalias dereferenceable_or_null(512) ptr @malloc(i64 noundef 512) #18
  %19 = tail call noalias dereferenceable_or_null(64) ptr @malloc(i64 noundef 64) #18
  %20 = icmp ne ptr %14, null
  %21 = icmp ne ptr %16, null
  %or.cond.i = and i1 %20, %21
  %22 = icmp ne ptr %17, null
  %or.cond3.i = and i1 %or.cond.i, %22
  %23 = icmp ne ptr %18, null
  %or.cond5.i = and i1 %or.cond3.i, %23
  %24 = icmp ne ptr %19, null
  %or.cond7.i = and i1 %or.cond5.i, %24
  br i1 %or.cond7.i, label %30, label %25

25:                                               ; preds = %11
  tail call void @free(ptr noundef %14) #16
  tail call void @free(ptr noundef %16) #16
  tail call void @free(ptr noundef %17) #16
  tail call void @free(ptr noundef %18) #16
  tail call void @free(ptr noundef %19) #16
  store ptr @failed_inc_oom, ptr %15, align 8
  %26 = getelementptr inbounds nuw i8, ptr %.017, i64 60
  %27 = load i32, ptr %26, align 4
  %28 = and i32 %27, 1
  %.not20 = icmp eq i32 %28, 0
  br i1 %.not20, label %44, label %29

29:                                               ; preds = %25
  tail call void @free(ptr noundef nonnull %.017) #16
  br label %44

30:                                               ; preds = %11
  %31 = getelementptr inbounds nuw i8, ptr %14, i64 8
  tail call void @initPQExpBuffer(ptr noundef nonnull %31) #16
  %32 = getelementptr inbounds nuw i8, ptr %.017, i64 80
  store ptr %16, ptr %32, align 8
  store i32 64, ptr %16, align 8
  %33 = getelementptr inbounds nuw i8, ptr %16, i64 8
  store ptr %17, ptr %33, align 8
  %34 = getelementptr inbounds nuw i8, ptr %16, i64 24
  store ptr %18, ptr %34, align 8
  %35 = getelementptr inbounds nuw i8, ptr %16, i64 32
  store ptr %19, ptr %35, align 8
  store ptr null, ptr %18, align 8
  %36 = getelementptr inbounds nuw i8, ptr %.017, i64 48
  store i8 1, ptr %36, align 8
  %37 = getelementptr inbounds nuw i8, ptr %.017, i64 96
  store i8 %4, ptr %37, align 8
  br i1 %2, label %38, label %44

38:                                               ; preds = %30
  %39 = tail call ptr @createPQExpBuffer() #16
  %40 = getelementptr inbounds nuw i8, ptr %.017, i64 104
  store ptr %39, ptr %40, align 8
  %41 = getelementptr inbounds nuw i8, ptr %.017, i64 60
  %42 = load i32, ptr %41, align 4
  %43 = or i32 %42, 2
  store i32 %43, ptr %41, align 4
  br label %44

44:                                               ; preds = %30, %38, %25, %6, %29
  %.0 = phi ptr [ @failed_oom, %29 ], [ @failed_oom, %6 ], [ %.017, %25 ], [ %.017, %38 ], [ %.017, %30 ]
  ret ptr %.0
}